	.text
	.file	"example.c"
	.globl	func                            # -- Begin function func
	.p2align	4, 0x90
	.type	func,@function
func:                                   # @func
	.cfi_startproc
# %bb.0:                                # %entry
	pushq	%rbp
	.cfi_def_cfa_offset 16
	.cfi_offset %rbp, -16
	movq	%rsp, %rbp
	.cfi_def_cfa_register %rbp
	movl	%edi, -4(%rbp)
	movl	%esi, -8(%rbp)
	movl	%edx, -12(%rbp)
	popq	%rbp
	.cfi_def_cfa %rsp, 8
	retq
.Lfunc_end0:
	.size	func, .Lfunc_end0-func
	.cfi_endproc
                                        # -- End function
	.globl	main                            # -- Begin function main
	.p2align	4, 0x90
	.type	main,@function
main:                                   # @main
	.cfi_startproc
# %bb.0:                                # %entry
	pushq	%rbp
	.cfi_def_cfa_offset 16
	.cfi_offset %rbp, -16
	movq	%rsp, %rbp
	.cfi_def_cfa_register %rbp
	movl	$1, %edi
	movl	$2, %esi
	movl	$3, %edx
	callq	func
	popq	%rbp
	.cfi_def_cfa %rsp, 8
	retq
.Lfunc_end1:
	.size	main, .Lfunc_end1-main
	.cfi_endproc
                                        # -- End function
	.ident	"Cisco Systems, Inc. clang version 16.0.3 (git@github3.cisco.com:llvm-dev/llvm-cisco b6d852cf5d2e127dcbb2eb24caa218a50c55876c)"
	.section	".note.GNU-stack","",@progbits
	.addrsig
	.addrsig_sym func
